; ModuleID = '40/2950.c'
source_filename = "40/2950.c"
target datalayout = "e-m:e-p270:32:32-p271:32:32-p272:64:64-i64:64-f80:128-n8:16:32:64-S128"
target triple = "x86_64-pc-linux-gnu"

@.str = private unnamed_addr constant [4 x i8] c"%lf\00", align 1
@.str.1 = private unnamed_addr constant [14 x i8] c"Invalid input\00", align 1
@.str.2 = private unnamed_addr constant [6 x i8] c"%.4lf\00", align 1

; Function Attrs: noinline nounwind uwtable
define dso_local i32 @main() #0 {
  %1 = alloca i32, align 4
  %2 = alloca double, align 8
  %3 = alloca double, align 8
  %4 = alloca double, align 8
  %5 = alloca double, align 8
  %6 = alloca double, align 8
  %7 = alloca double, align 8
  store i32 0, i32* %1, align 4
  %8 = call i32 (i8*, ...) @__isoc99_scanf(i8* getelementptr inbounds ([4 x i8], [4 x i8]* @.str, i64 0, i64 0), double* %2)
  %9 = call i32 (i8*, ...) @__isoc99_scanf(i8* getelementptr inbounds ([4 x i8], [4 x i8]* @.str, i64 0, i64 0), double* %3)
  %10 = call i32 (i8*, ...) @__isoc99_scanf(i8* getelementptr inbounds ([4 x i8], [4 x i8]* @.str, i64 0, i64 0), double* %4)
  %11 = call i32 (i8*, ...) @__isoc99_scanf(i8* getelementptr inbounds ([4 x i8], [4 x i8]* @.str, i64 0, i64 0), double* %5)
  %12 = call i32 (i8*, ...) @__isoc99_scanf(i8* getelementptr inbounds ([4 x i8], [4 x i8]* @.str, i64 0, i64 0), double* %7)
  %13 = load double, double* %2, align 8
  %14 = load double, double* %3, align 8
  %15 = fadd double %13, %14
  %16 = load double, double* %4, align 8
  %17 = fadd double %15, %16
  %18 = load double, double* %5, align 8
  %19 = fadd double %17, %18
  %20 = fdiv double %19, 2.000000e+00
  store double %20, double* %6, align 8
  %21 = load double, double* %7, align 8
  %22 = fmul double %21, 0x400921FB4D12D84A
  %23 = fdiv double %22, 1.800000e+02
  store double %23, double* %7, align 8
  %24 = load double, double* %6, align 8
  %25 = load double, double* %2, align 8
  %26 = fsub double %24, %25
  %27 = load double, double* %6, align 8
  %28 = load double, double* %3, align 8
  %29 = fsub double %27, %28
  %30 = fmul double %26, %29
  %31 = load double, double* %6, align 8
  %32 = load double, double* %4, align 8
  %33 = fsub double %31, %32
  %34 = fmul double %30, %33
  %35 = load double, double* %6, align 8
  %36 = load double, double* %5, align 8
  %37 = fsub double %35, %36
  %38 = fmul double %34, %37
  %39 = load double, double* %2, align 8
  %40 = load double, double* %3, align 8
  %41 = fmul double %39, %40
  %42 = load double, double* %4, align 8
  %43 = fmul double %41, %42
  %44 = load double, double* %5, align 8
  %45 = fmul double %43, %44
  %46 = load double, double* %7, align 8
  %47 = fdiv double %46, 2.000000e+00
  %48 = call double @cos(double %47) #3
  %49 = fmul double %45, %48
  %50 = load double, double* %7, align 8
  %51 = fdiv double %50, 2.000000e+00
  %52 = call double @cos(double %51) #3
  %53 = fmul double %49, %52
  %54 = fsub double %38, %53
  %55 = fcmp olt double %54, 0.000000e+00
  br i1 %55, label %56, label %58

56:                                               ; preds = %0
  %57 = call i32 (i8*, ...) @printf(i8* getelementptr inbounds ([14 x i8], [14 x i8]* @.str.1, i64 0, i64 0))
  br label %92

58:                                               ; preds = %0
  %59 = load double, double* %6, align 8
  %60 = load double, double* %2, align 8
  %61 = fsub double %59, %60
  %62 = load double, double* %6, align 8
  %63 = load double, double* %3, align 8
  %64 = fsub double %62, %63
  %65 = fmul double %61, %64
  %66 = load double, double* %6, align 8
  %67 = load double, double* %4, align 8
  %68 = fsub double %66, %67
  %69 = fmul double %65, %68
  %70 = load double, double* %6, align 8
  %71 = load double, double* %5, align 8
  %72 = fsub double %70, %71
  %73 = fmul double %69, %72
  %74 = load double, double* %2, align 8
  %75 = load double, double* %3, align 8
  %76 = fmul double %74, %75
  %77 = load double, double* %4, align 8
  %78 = fmul double %76, %77
  %79 = load double, double* %5, align 8
  %80 = fmul double %78, %79
  %81 = load double, double* %7, align 8
  %82 = fdiv double %81, 2.000000e+00
  %83 = call double @cos(double %82) #3
  %84 = fmul double %80, %83
  %85 = load double, double* %7, align 8
  %86 = fdiv double %85, 2.000000e+00
  %87 = call double @cos(double %86) #3
  %88 = fmul double %84, %87
  %89 = fsub double %73, %88
  %90 = call double @sqrt(double %89) #3
  %91 = call i32 (i8*, ...) @printf(i8* getelementptr inbounds ([6 x i8], [6 x i8]* @.str.2, i64 0, i64 0), double %90)
  br label %92

92:                                               ; preds = %58, %56
  %93 = call i32 @getchar()
  %94 = call i32 @getchar()
  %95 = load i32, i32* %1, align 4
  ret i32 %95
}

declare dso_local i32 @__isoc99_scanf(i8*, ...) #1

; Function Attrs: nounwind
declare dso_local double @cos(double) #2

declare dso_local i32 @printf(i8*, ...) #1

; Function Attrs: nounwind
declare dso_local double @sqrt(double) #2

declare dso_local i32 @getchar() #1


!llvm.module.flags = !{!0}
!llvm.ident = !{!1}

!0 = !{i32 1, !"wchar_size", i32 4}
!1 = !{!"clang version 10.0.0-4ubuntu1 "}
